; ModuleID = '37/1270.c'
source_filename = "37/1270.c"
target datalayout = "e-m:e-p270:32:32-p271:32:32-p272:64:64-i64:64-f80:128-n8:16:32:64-S128"
target triple = "x86_64-pc-linux-gnu"

@.str = private unnamed_addr constant [3 x i8] c"%d\00", align 1
@.str.1 = private unnamed_addr constant [3 x i8] c"%s\00", align 1
@.str.2 = private unnamed_addr constant [4 x i8] c"no\0A\00", align 1
@.str.3 = private unnamed_addr constant [4 x i8] c"%c\0A\00", align 1

; Function Attrs: noinline nounwind uwtable
define dso_local i32 @main() #0 {
  %1 = alloca i32, align 4
  %2 = alloca i32, align 4
  %3 = alloca i32, align 4
  %4 = alloca i32, align 4
  %5 = alloca i32, align 4
  %6 = alloca i32, align 4
  %7 = alloca i32, align 4
  %8 = alloca [30 x i32], align 16
  %9 = alloca i32, align 4
  %10 = alloca i8, align 1
  %11 = alloca [100000 x i8], align 16
  store i32 0, i32* %1, align 4
  %12 = call i32 (i8*, ...) @__isoc99_scanf(i8* getelementptr inbounds ([3 x i8], [3 x i8]* @.str, i64 0, i64 0), i32* %2)
  store i32 0, i32* %3, align 4
  br label %13

13:                                               ; preds = %102, %0
  %14 = load i32, i32* %3, align 4
  %15 = load i32, i32* %2, align 4
  %16 = icmp slt i32 %14, %15
  br i1 %16, label %17, label %105

17:                                               ; preds = %13
  %18 = getelementptr inbounds [100000 x i8], [100000 x i8]* %11, i64 0, i64 0
  %19 = call i32 (i8*, ...) @__isoc99_scanf(i8* getelementptr inbounds ([3 x i8], [3 x i8]* @.str.1, i64 0, i64 0), i8* %18)
  store i32 0, i32* %7, align 4
  store i8 97, i8* %10, align 1
  br label %20

20:                                               ; preds = %59, %17
  %21 = load i8, i8* %10, align 1
  %22 = sext i8 %21 to i32
  %23 = icmp sle i32 %22, 122
  br i1 %23, label %24, label %62

24:                                               ; preds = %20
  store i32 0, i32* %5, align 4
  store i32 0, i32* %4, align 4
  br label %25

25:                                               ; preds = %45, %24
  %26 = load i32, i32* %4, align 4
  %27 = sext i32 %26 to i64
  %28 = getelementptr inbounds [100000 x i8], [100000 x i8]* %11, i64 0, i64 0
  %29 = call i64 @strlen(i8* %28) #3
  %30 = icmp ult i64 %27, %29
  br i1 %30, label %31, label %48

31:                                               ; preds = %25
  %32 = load i32, i32* %4, align 4
  %33 = sext i32 %32 to i64
  %34 = getelementptr inbounds [100000 x i8], [100000 x i8]* %11, i64 0, i64 %33
  %35 = load i8, i8* %34, align 1
  %36 = sext i8 %35 to i32
  %37 = load i8, i8* %10, align 1
  %38 = sext i8 %37 to i32
  %39 = icmp eq i32 %36, %38
  br i1 %39, label %40, label %44

40:                                               ; preds = %31
  %41 = load i32, i32* %4, align 4
  store i32 %41, i32* %6, align 4
  %42 = load i32, i32* %5, align 4
  %43 = add nsw i32 %42, 1
  store i32 %43, i32* %5, align 4
  br label %44

44:                                               ; preds = %40, %31
  br label %45

45:                                               ; preds = %44
  %46 = load i32, i32* %4, align 4
  %47 = add nsw i32 %46, 1
  store i32 %47, i32* %4, align 4
  br label %25

48:                                               ; preds = %25
  %49 = load i32, i32* %5, align 4
  %50 = icmp eq i32 %49, 1
  br i1 %50, label %51, label %58

51:                                               ; preds = %48
  %52 = load i32, i32* %6, align 4
  %53 = load i32, i32* %7, align 4
  %54 = sext i32 %53 to i64
  %55 = getelementptr inbounds [30 x i32], [30 x i32]* %8, i64 0, i64 %54
  store i32 %52, i32* %55, align 4
  %56 = load i32, i32* %7, align 4
  %57 = add nsw i32 %56, 1
  store i32 %57, i32* %7, align 4
  br label %58

58:                                               ; preds = %51, %48
  br label %59

59:                                               ; preds = %58
  %60 = load i8, i8* %10, align 1
  %61 = add i8 %60, 1
  store i8 %61, i8* %10, align 1
  br label %20

62:                                               ; preds = %20
  %63 = load i32, i32* %7, align 4
  %64 = icmp eq i32 %63, 0
  br i1 %64, label %65, label %67

65:                                               ; preds = %62
  %66 = call i32 (i8*, ...) @printf(i8* getelementptr inbounds ([4 x i8], [4 x i8]* @.str.2, i64 0, i64 0))
  br label %101

67:                                               ; preds = %62
  %68 = load i32, i32* %7, align 4
  %69 = icmp sgt i32 %68, 0
  br i1 %69, label %70, label %100

70:                                               ; preds = %67
  %71 = getelementptr inbounds [30 x i32], [30 x i32]* %8, i64 0, i64 0
  %72 = load i32, i32* %71, align 16
  store i32 %72, i32* %9, align 4
  store i32 0, i32* %4, align 4
  br label %73

73:                                               ; preds = %90, %70
  %74 = load i32, i32* %4, align 4
  %75 = load i32, i32* %7, align 4
  %76 = icmp slt i32 %74, %75
  br i1 %76, label %77, label %93

77:                                               ; preds = %73
  %78 = load i32, i32* %4, align 4
  %79 = sext i32 %78 to i64
  %80 = getelementptr inbounds [30 x i32], [30 x i32]* %8, i64 0, i64 %79
  %81 = load i32, i32* %80, align 4
  %82 = load i32, i32* %9, align 4
  %83 = icmp slt i32 %81, %82
  br i1 %83, label %84, label %89

84:                                               ; preds = %77
  %85 = load i32, i32* %4, align 4
  %86 = sext i32 %85 to i64
  %87 = getelementptr inbounds [30 x i32], [30 x i32]* %8, i64 0, i64 %86
  %88 = load i32, i32* %87, align 4
  store i32 %88, i32* %9, align 4
  br label %89

89:                                               ; preds = %84, %77
  br label %90

90:                                               ; preds = %89
  %91 = load i32, i32* %4, align 4
  %92 = add nsw i32 %91, 1
  store i32 %92, i32* %4, align 4
  br label %73

93:                                               ; preds = %73
  %94 = load i32, i32* %9, align 4
  %95 = sext i32 %94 to i64
  %96 = getelementptr inbounds [100000 x i8], [100000 x i8]* %11, i64 0, i64 %95
  %97 = load i8, i8* %96, align 1
  %98 = sext i8 %97 to i32
  %99 = call i32 (i8*, ...) @printf(i8* getelementptr inbounds ([4 x i8], [4 x i8]* @.str.3, i64 0, i64 0), i32 %98)
  br label %100

100:                                              ; preds = %93, %67
  br label %101

101:                                              ; preds = %100, %65
  br label %102

102:                                              ; preds = %101
  %103 = load i32, i32* %3, align 4
  %104 = add nsw i32 %103, 1
  store i32 %104, i32* %3, align 4
  br label %13

105:                                              ; preds = %13
  ret i32 0
}

declare dso_local i32 @__isoc99_scanf(i8*, ...) #1

; Function Attrs: nounwind readonly
declare dso_local i64 @strlen(i8*) #2

declare dso_local i32 @printf(i8*, ...) #1


!llvm.module.flags = !{!0}
!llvm.ident = !{!1}

!0 = !{i32 1, !"wchar_size", i32 4}
!1 = !{!"clang version 10.0.0-4ubuntu1 "}
